target datalayout = "e-m:e-p270:32:32-p271:32:32-p272:64:64-i64:64-i128:128-f80:128-n8:16:32:64-S128"
target triple = "x86_64-pc-linux-gnu"

@.str.16 = private unnamed_addr constant [22 x i8] c"string slice too long\00", align 1

; Function Attrs: nounwind uwtable
define internal i64 @posrelat(i64 noundef %0, i64 noundef %1) #0 {
  %3 = alloca i64, align 8
  %4 = alloca i64, align 8
  store i64 %0, ptr %3, align 8, !tbaa !11
  store i64 %1, ptr %4, align 8, !tbaa !11
  %5 = load i64, ptr %3, align 8, !tbaa !11
  %6 = icmp slt i64 %5, 0
  br i1 %6, label %7, label %12

7:                                                ; preds = %2
  %8 = load i64, ptr %4, align 8, !tbaa !11
  %9 = add nsw i64 %8, 1
  %10 = load i64, ptr %3, align 8, !tbaa !11
  %11 = add nsw i64 %10, %9
  store i64 %11, ptr %3, align 8, !tbaa !11
  br label %12

12:                                               ; preds = %7, %2
  %13 = load i64, ptr %3, align 8, !tbaa !11
  %14 = icmp sge i64 %13, 0
  br i1 %14, label %15, label %17

15:                                               ; preds = %12
  %16 = load i64, ptr %3, align 8, !tbaa !11
  br label %18

17:                                               ; preds = %12
  br label %18

18:                                               ; preds = %17, %15
  %19 = phi i64 [ %16, %15 ], [ 0, %17 ]
  ret i64 %19
}

; Function Attrs: nounwind uwtable
define internal i32 @str_byte(ptr noundef %0) #0 {
  %2 = alloca i32, align 4
  %3 = alloca ptr, align 8
  %4 = alloca i64, align 8
  %5 = alloca ptr, align 8
  %6 = alloca i64, align 8
  %7 = alloca i64, align 8
  %8 = alloca i32, align 4
  %9 = alloca i32, align 4
  %10 = alloca i32, align 4
  store ptr %0, ptr %3, align 8, !tbaa !4
  call void @llvm.lifetime.start.p0(i64 8, ptr %4) #8
  call void @llvm.lifetime.start.p0(i64 8, ptr %5) #8
  %11 = load ptr, ptr %3, align 8, !tbaa !4
  %12 = call ptr @luaL_checklstring(ptr noundef %11, i32 noundef 1, ptr noundef %4)
  store ptr %12, ptr %5, align 8, !tbaa !9
  call void @llvm.lifetime.start.p0(i64 8, ptr %6) #8
  %13 = load ptr, ptr %3, align 8, !tbaa !4
  %14 = call i64 @luaL_optinteger(ptr noundef %13, i32 noundef 2, i64 noundef 1)
  %15 = load i64, ptr %4, align 8, !tbaa !11
  %16 = call i64 @posrelat(i64 noundef %14, i64 noundef %15)
  store i64 %16, ptr %6, align 8, !tbaa !11
  call void @llvm.lifetime.start.p0(i64 8, ptr %7) #8
  %17 = load ptr, ptr %3, align 8, !tbaa !4
  %18 = load i64, ptr %6, align 8, !tbaa !11
  %19 = call i64 @luaL_optinteger(ptr noundef %17, i32 noundef 3, i64 noundef %18)
  %20 = load i64, ptr %4, align 8, !tbaa !11
  %21 = call i64 @posrelat(i64 noundef %19, i64 noundef %20)
  store i64 %21, ptr %7, align 8, !tbaa !11
  call void @llvm.lifetime.start.p0(i64 4, ptr %8) #8
  call void @llvm.lifetime.start.p0(i64 4, ptr %9) #8
  %22 = load i64, ptr %6, align 8, !tbaa !11
  %23 = icmp sle i64 %22, 0
  br i1 %23, label %24, label %25

24:                                               ; preds = %1
  store i64 1, ptr %6, align 8, !tbaa !11
  br label %25

25:                                               ; preds = %24, %1
  %26 = load i64, ptr %7, align 8, !tbaa !11
  %27 = load i64, ptr %4, align 8, !tbaa !11
  %28 = icmp ugt i64 %26, %27
  br i1 %28, label %29, label %31

29:                                               ; preds = %25
  %30 = load i64, ptr %4, align 8, !tbaa !11
  store i64 %30, ptr %7, align 8, !tbaa !11
  br label %31

31:                                               ; preds = %29, %25
  %32 = load i64, ptr %6, align 8, !tbaa !11
  %33 = load i64, ptr %7, align 8, !tbaa !11
  %34 = icmp sgt i64 %32, %33
  br i1 %34, label %35, label %36

35:                                               ; preds = %31
  store i32 0, ptr %2, align 4
  store i32 1, ptr %10, align 4
  br label %74

36:                                               ; preds = %31
  %37 = load i64, ptr %7, align 8, !tbaa !11
  %38 = load i64, ptr %6, align 8, !tbaa !11
  %39 = sub nsw i64 %37, %38
  %40 = add nsw i64 %39, 1
  %41 = trunc i64 %40 to i32
  store i32 %41, ptr %8, align 4, !tbaa !13
  %42 = load i64, ptr %6, align 8, !tbaa !11
  %43 = load i32, ptr %8, align 4, !tbaa !13
  %44 = sext i32 %43 to i64
  %45 = add nsw i64 %42, %44
  %46 = load i64, ptr %7, align 8, !tbaa !11
  %47 = icmp sle i64 %45, %46
  br i1 %47, label %48, label %51

48:                                               ; preds = %36
  %49 = load ptr, ptr %3, align 8, !tbaa !4
  %50 = call i32 (ptr, ptr, ...) @luaL_error(ptr noundef %49, ptr noundef @.str.16)
  br label %51

51:                                               ; preds = %48, %36
  %52 = load ptr, ptr %3, align 8, !tbaa !4
  %53 = load i32, ptr %8, align 4, !tbaa !13
  call void @luaL_checkstack(ptr noundef %52, i32 noundef %53, ptr noundef @.str.16)
  store i32 0, ptr %9, align 4, !tbaa !13
  br label %54

54:                                               ; preds = %69, %51
  %55 = load i32, ptr %9, align 4, !tbaa !13
  %56 = load i32, ptr %8, align 4, !tbaa !13
  %57 = icmp slt i32 %55, %56
  br i1 %57, label %58, label %72

58:                                               ; preds = %54
  %59 = load ptr, ptr %3, align 8, !tbaa !4
  %60 = load ptr, ptr %5, align 8, !tbaa !9
  %61 = load i64, ptr %6, align 8, !tbaa !11
  %62 = load i32, ptr %9, align 4, !tbaa !13
  %63 = sext i32 %62 to i64
  %64 = add nsw i64 %61, %63
  %65 = sub nsw i64 %64, 1
  %66 = getelementptr inbounds i8, ptr %60, i64 %65
  %67 = load i8, ptr %66, align 1, !tbaa !15
  %68 = zext i8 %67 to i64
  call void @lua_pushinteger(ptr noundef %59, i64 noundef %68)
  br label %69

69:                                               ; preds = %58
  %70 = load i32, ptr %9, align 4, !tbaa !13
  %71 = add nsw i32 %70, 1
  store i32 %71, ptr %9, align 4, !tbaa !13
  br label %54, !llvm.loop !16

72:                                               ; preds = %54
  %73 = load i32, ptr %8, align 4, !tbaa !13
  store i32 %73, ptr %2, align 4
  store i32 1, ptr %10, align 4
  br label %74

74:                                               ; preds = %72, %35
  call void @llvm.lifetime.end.p0(i64 4, ptr %9) #8
  call void @llvm.lifetime.end.p0(i64 4, ptr %8) #8
  call void @llvm.lifetime.end.p0(i64 8, ptr %7) #8
  call void @llvm.lifetime.end.p0(i64 8, ptr %6) #8
  call void @llvm.lifetime.end.p0(i64 8, ptr %5) #8
  call void @llvm.lifetime.end.p0(i64 8, ptr %4) #8
  %75 = load i32, ptr %2, align 4
  ret i32 %75
}