; Function Attrs: nounwind uwtable
define internal i32 @str_byte(ptr noundef %0) #0 {
  %2 = alloca i64, align 8
  call void @llvm.lifetime.start.p0(i64 8, ptr nonnull %2) #10
  %3 = call ptr @luaL_checklstring(ptr noundef %0, i32 noundef 1, ptr noundef nonnull %2) #10
  %4 = call i64 @luaL_optinteger(ptr noundef %0, i32 noundef 2, i64 noundef 1) #10
  %5 = load i64, ptr %2, align 8, !tbaa !4
  %6 = icmp slt i64 %4, 0
  %7 = add nsw i64 %5, 1
  %8 = select i1 %6, i64 %7, i64 0
  %.0.i = add nsw i64 %8, %4
  %9 = call range(i64 0, -9223372036854775808) i64 @llvm.smax.i64(i64 %.0.i, i64 0)
  %10 = call i64 @luaL_optinteger(ptr noundef %0, i32 noundef 3, i64 noundef %9) #10
  %11 = load i64, ptr %2, align 8, !tbaa !4
  %12 = icmp slt i64 %10, 0
  %13 = add nsw i64 %11, 1
  %14 = select i1 %12, i64 %13, i64 0
  %.0.i29 = add nsw i64 %14, %10
  %15 = call range(i64 0, -9223372036854775808) i64 @llvm.smax.i64(i64 %.0.i29, i64 0)
  %16 = call i64 @llvm.smax.i64(i64 %.0.i, i64 1)
  %spec.select = call i64 @llvm.umin.i64(i64 %15, i64 %11)
  %17 = icmp samesign ugt i64 %16, %spec.select
  br i1 %17, label %.loopexit, label %18

18:                                               ; preds = %1
  %19 = sub nuw nsw i64 %spec.select, %16
  %20 = trunc i64 %19 to i32
  %21 = add i32 %20, 1
  %22 = sext i32 %21 to i64
  %23 = add nsw i64 %16, %22
  %.not = icmp sgt i64 %23, %spec.select
  br i1 %.not, label %26, label %24

24:                                               ; preds = %18
  %25 = call i32 (ptr, ptr, ...) @luaL_error(ptr noundef %0, ptr noundef nonnull @.str.16) #10
  br label %26

26:                                               ; preds = %24, %18
  call void @luaL_checkstack(ptr noundef %0, i32 noundef %21, ptr noundef nonnull @.str.16) #10
  %27 = icmp ult i32 %20, 2147483647
  br i1 %27, label %.lr.ph, label %.loopexit

.lr.ph:                                           ; preds = %26
  %28 = getelementptr i8, ptr %3, i64 %16
  %invariant.gep = getelementptr i8, ptr %28, i64 -1
  %wide.trip.count = zext nneg i32 %21 to i64
  br label %29

29:                                               ; preds = %.lr.ph, %29
  %indvars.iv = phi i64 [ 0, %.lr.ph ], [ %indvars.iv.next, %29 ]
  %gep = getelementptr i8, ptr %invariant.gep, i64 %indvars.iv
  %30 = load i8, ptr %gep, align 1, !tbaa !8
  %31 = zext i8 %30 to i64
  call void @lua_pushinteger(ptr noundef %0, i64 noundef %31) #10
  %indvars.iv.next = add nuw nsw i64 %indvars.iv, 1
  %exitcond.not = icmp eq i64 %indvars.iv.next, %wide.trip.count
  br i1 %exitcond.not, label %.loopexit, label %29, !llvm.loop !9

.loopexit:                                        ; preds = %29, %26, %1
  %.024 = phi i32 [ 0, %1 ], [ %21, %26 ], [ %21, %29 ]
  call void @llvm.lifetime.end.p0(i64 8, ptr nonnull %2) #10
  ret i32 %.024
}